target datalayout = "e-m:e-p270:32:32-p271:32:32-p272:64:64-i64:64-i128:128-f80:128-n8:16:32:64-S128"
target triple = "x86_64-pc-linux-gnu"

%struct.stbrp_context = type { i32, i32, i32, i32, i32 }
%struct.stbrp_rect = type { i32, i32, i32, i32, i32, i32 }
%struct.stbtt_pack_context = type { ptr, ptr, i32, i32, i32, i32, i32, i32, i32, ptr, ptr }

; Function Attrs: nounwind uwtable
define void @stbrp_pack_rects(ptr noundef %0, ptr noundef %1, i32 noundef %2) #0 {
  %4 = alloca ptr, align 8
  %5 = alloca ptr, align 8
  %6 = alloca i32, align 4
  %7 = alloca i32, align 4
  store ptr %0, ptr %4, align 8, !tbaa !3
  store ptr %1, ptr %5, align 8, !tbaa !190
  store i32 %2, ptr %6, align 4, !tbaa !14
  call void @llvm.lifetime.start.p0(i64 4, ptr %7) #8
  store i32 0, ptr %7, align 4, !tbaa !14
  br label %8

8:                                                ; preds = %111, %3
  %9 = load i32, ptr %7, align 4, !tbaa !14
  %10 = load i32, ptr %6, align 4, !tbaa !14
  %11 = icmp slt i32 %9, %10
  br i1 %11, label %12, label %114

12:                                               ; preds = %8
  %13 = load ptr, ptr %4, align 8, !tbaa !3
  %14 = getelementptr inbounds nuw %struct.stbrp_context, ptr %13, i32 0, i32 2
  %15 = load i32, ptr %14, align 4, !tbaa !187
  %16 = load ptr, ptr %5, align 8, !tbaa !190
  %17 = load i32, ptr %7, align 4, !tbaa !14
  %18 = sext i32 %17 to i64
  %19 = getelementptr inbounds %struct.stbrp_rect, ptr %16, i64 %18
  %20 = getelementptr inbounds nuw %struct.stbrp_rect, ptr %19, i32 0, i32 3
  %21 = load i32, ptr %20, align 4, !tbaa !192
  %22 = add nsw i32 %15, %21
  %23 = load ptr, ptr %4, align 8, !tbaa !3
  %24 = getelementptr inbounds nuw %struct.stbrp_context, ptr %23, i32 0, i32 0
  %25 = load i32, ptr %24, align 4, !tbaa !184
  %26 = icmp sgt i32 %22, %25
  br i1 %26, label %27, label %35

27:                                               ; preds = %12
  %28 = load ptr, ptr %4, align 8, !tbaa !3
  %29 = getelementptr inbounds nuw %struct.stbrp_context, ptr %28, i32 0, i32 2
  store i32 0, ptr %29, align 4, !tbaa !187
  %30 = load ptr, ptr %4, align 8, !tbaa !3
  %31 = getelementptr inbounds nuw %struct.stbrp_context, ptr %30, i32 0, i32 4
  %32 = load i32, ptr %31, align 4, !tbaa !189
  %33 = load ptr, ptr %4, align 8, !tbaa !3
  %34 = getelementptr inbounds nuw %struct.stbrp_context, ptr %33, i32 0, i32 3
  store i32 %32, ptr %34, align 4, !tbaa !188
  br label %35

35:                                               ; preds = %27, %12
  %36 = load ptr, ptr %4, align 8, !tbaa !3
  %37 = getelementptr inbounds nuw %struct.stbrp_context, ptr %36, i32 0, i32 3
  %38 = load i32, ptr %37, align 4, !tbaa !188
  %39 = load ptr, ptr %5, align 8, !tbaa !190
  %40 = load i32, ptr %7, align 4, !tbaa !14
  %41 = sext i32 %40 to i64
  %42 = getelementptr inbounds %struct.stbrp_rect, ptr %39, i64 %41
  %43 = getelementptr inbounds nuw %struct.stbrp_rect, ptr %42, i32 0, i32 4
  %44 = load i32, ptr %43, align 4, !tbaa !194
  %45 = add nsw i32 %38, %44
  %46 = load ptr, ptr %4, align 8, !tbaa !3
  %47 = getelementptr inbounds nuw %struct.stbrp_context, ptr %46, i32 0, i32 1
  %48 = load i32, ptr %47, align 4, !tbaa !186
  %49 = icmp sgt i32 %45, %48
  br i1 %49, label %50, label %51

50:                                               ; preds = %35
  br label %114

51:                                               ; preds = %35
  %52 = load ptr, ptr %4, align 8, !tbaa !3
  %53 = getelementptr inbounds nuw %struct.stbrp_context, ptr %52, i32 0, i32 2
  %54 = load i32, ptr %53, align 4, !tbaa !187
  %55 = load ptr, ptr %5, align 8, !tbaa !190
  %56 = load i32, ptr %7, align 4, !tbaa !14
  %57 = sext i32 %56 to i64
  %58 = getelementptr inbounds %struct.stbrp_rect, ptr %55, i64 %57
  %59 = getelementptr inbounds nuw %struct.stbrp_rect, ptr %58, i32 0, i32 0
  store i32 %54, ptr %59, align 4, !tbaa !195
  %60 = load ptr, ptr %4, align 8, !tbaa !3
  %61 = getelementptr inbounds nuw %struct.stbrp_context, ptr %60, i32 0, i32 3
  %62 = load i32, ptr %61, align 4, !tbaa !188
  %63 = load ptr, ptr %5, align 8, !tbaa !190
  %64 = load i32, ptr %7, align 4, !tbaa !14
  %65 = sext i32 %64 to i64
  %66 = getelementptr inbounds %struct.stbrp_rect, ptr %63, i64 %65
  %67 = getelementptr inbounds nuw %struct.stbrp_rect, ptr %66, i32 0, i32 1
  store i32 %62, ptr %67, align 4, !tbaa !196
  %68 = load ptr, ptr %5, align 8, !tbaa !190
  %69 = load i32, ptr %7, align 4, !tbaa !14
  %70 = sext i32 %69 to i64
  %71 = getelementptr inbounds %struct.stbrp_rect, ptr %68, i64 %70
  %72 = getelementptr inbounds nuw %struct.stbrp_rect, ptr %71, i32 0, i32 5
  store i32 1, ptr %72, align 4, !tbaa !197
  %73 = load ptr, ptr %5, align 8, !tbaa !190
  %74 = load i32, ptr %7, align 4, !tbaa !14
  %75 = sext i32 %74 to i64
  %76 = getelementptr inbounds %struct.stbrp_rect, ptr %73, i64 %75
  %77 = getelementptr inbounds nuw %struct.stbrp_rect, ptr %76, i32 0, i32 3
  %78 = load i32, ptr %77, align 4, !tbaa !192
  %79 = load ptr, ptr %4, align 8, !tbaa !3
  %80 = getelementptr inbounds nuw %struct.stbrp_context, ptr %79, i32 0, i32 2
  %81 = load i32, ptr %80, align 4, !tbaa !187
  %82 = add nsw i32 %81, %78
  store i32 %82, ptr %80, align 4, !tbaa !187
  %83 = load ptr, ptr %4, align 8, !tbaa !3
  %84 = getelementptr inbounds nuw %struct.stbrp_context, ptr %83, i32 0, i32 3
  %85 = load i32, ptr %84, align 4, !tbaa !188
  %86 = load ptr, ptr %5, align 8, !tbaa !190
  %87 = load i32, ptr %7, align 4, !tbaa !14
  %88 = sext i32 %87 to i64
  %89 = getelementptr inbounds %struct.stbrp_rect, ptr %86, i64 %88
  %90 = getelementptr inbounds nuw %struct.stbrp_rect, ptr %89, i32 0, i32 4
  %91 = load i32, ptr %90, align 4, !tbaa !194
  %92 = add nsw i32 %85, %91
  %93 = load ptr, ptr %4, align 8, !tbaa !3
  %94 = getelementptr inbounds nuw %struct.stbrp_context, ptr %93, i32 0, i32 4
  %95 = load i32, ptr %94, align 4, !tbaa !189
  %96 = icmp sgt i32 %92, %95
  br i1 %96, label %97, label %110

97:                                               ; preds = %51
  %98 = load ptr, ptr %4, align 8, !tbaa !3
  %99 = getelementptr inbounds nuw %struct.stbrp_context, ptr %98, i32 0, i32 3
  %100 = load i32, ptr %99, align 4, !tbaa !188
  %101 = load ptr, ptr %5, align 8, !tbaa !190
  %102 = load i32, ptr %7, align 4, !tbaa !14
  %103 = sext i32 %102 to i64
  %104 = getelementptr inbounds %struct.stbrp_rect, ptr %101, i64 %103
  %105 = getelementptr inbounds nuw %struct.stbrp_rect, ptr %104, i32 0, i32 4
  %106 = load i32, ptr %105, align 4, !tbaa !194
  %107 = add nsw i32 %100, %106
  %108 = load ptr, ptr %4, align 8, !tbaa !3
  %109 = getelementptr inbounds nuw %struct.stbrp_context, ptr %108, i32 0, i32 4
  store i32 %107, ptr %109, align 4, !tbaa !189
  br label %110

110:                                              ; preds = %97, %51
  br label %111

111:                                              ; preds = %110
  %112 = load i32, ptr %7, align 4, !tbaa !14
  %113 = add nsw i32 %112, 1
  store i32 %113, ptr %7, align 4, !tbaa !14
  br label %8, !llvm.loop !198

114:                                              ; preds = %50, %8
  br label %115

115:                                              ; preds = %125, %114
  %116 = load i32, ptr %7, align 4, !tbaa !14
  %117 = load i32, ptr %6, align 4, !tbaa !14
  %118 = icmp slt i32 %116, %117
  br i1 %118, label %119, label %128

119:                                              ; preds = %115
  %120 = load ptr, ptr %5, align 8, !tbaa !190
  %121 = load i32, ptr %7, align 4, !tbaa !14
  %122 = sext i32 %121 to i64
  %123 = getelementptr inbounds %struct.stbrp_rect, ptr %120, i64 %122
  %124 = getelementptr inbounds nuw %struct.stbrp_rect, ptr %123, i32 0, i32 5
  store i32 0, ptr %124, align 4, !tbaa !197
  br label %125

125:                                              ; preds = %119
  %126 = load i32, ptr %7, align 4, !tbaa !14
  %127 = add nsw i32 %126, 1
  store i32 %127, ptr %7, align 4, !tbaa !14
  br label %115, !llvm.loop !199

128:                                              ; preds = %115
  call void @llvm.lifetime.end.p0(i64 4, ptr %7) #8
  ret void
}

; Function Attrs: nounwind uwtable
define void @stbtt_PackFontRangesPackRects(ptr noundef %0, ptr noundef %1, i32 noundef %2) #0 {
  %4 = alloca ptr, align 8
  %5 = alloca ptr, align 8
  %6 = alloca i32, align 4
  store ptr %0, ptr %4, align 8, !tbaa !200
  store ptr %1, ptr %5, align 8, !tbaa !190
  store i32 %2, ptr %6, align 4, !tbaa !14
  %7 = load ptr, ptr %4, align 8, !tbaa !200
  %8 = getelementptr inbounds nuw %struct.stbtt_pack_context, ptr %7, i32 0, i32 1
  %9 = load ptr, ptr %8, align 8, !tbaa !207
  %10 = load ptr, ptr %5, align 8, !tbaa !190
  %11 = load i32, ptr %6, align 4, !tbaa !14
  call void @stbrp_pack_rects(ptr noundef %9, ptr noundef %10, i32 noundef %11)
  ret void
}