; Function Attrs: nofree norecurse nosync nounwind memory(readwrite, inaccessiblemem: none) uwtable
define void @stbtt_PackFontRangesPackRects(ptr noundef readonly captures(none) %0, ptr noundef captures(none) %1, i32 noundef %2) local_unnamed_addr #13 {
  %4 = icmp sgt i32 %2, 0
  br i1 %4, label %.lr.ph.i, label %._crit_edge.i

.lr.ph.i:                                         ; preds = %3
  %5 = getelementptr inbounds nuw i8, ptr %0, i64 8
  %6 = load ptr, ptr %5, align 8, !tbaa !182
  %7 = getelementptr inbounds nuw i8, ptr %6, i64 8
  %8 = load i32, ptr %6, align 4, !tbaa !163
  %9 = getelementptr inbounds nuw i8, ptr %6, i64 16
  %10 = getelementptr inbounds nuw i8, ptr %6, i64 12
  %11 = getelementptr inbounds nuw i8, ptr %6, i64 4
  %12 = load i32, ptr %11, align 4, !tbaa !165
  %.promoted.i = load i32, ptr %7, align 4, !tbaa !166
  %.promoted41.i = load i32, ptr %10, align 4, !tbaa !167
  %wide.trip.count.i = zext nneg i32 %2 to i64
  br label %13

13:                                               ; preds = %37, %.lr.ph.i
  %indvars.iv.i = phi i64 [ 0, %.lr.ph.i ], [ %indvars.iv.next.i, %37 ]
  %14 = phi i32 [ %.promoted41.i, %.lr.ph.i ], [ %24, %37 ]
  %15 = phi i32 [ %.promoted.i, %.lr.ph.i ], [ %33, %37 ]
  %16 = getelementptr inbounds nuw %struct.stbrp_rect, ptr %1, i64 %indvars.iv.i
  %17 = getelementptr inbounds nuw i8, ptr %16, i64 12
  %18 = load i32, ptr %17, align 4, !tbaa !169
  %19 = add nsw i32 %18, %15
  %20 = icmp sgt i32 %19, %8
  br i1 %20, label %21, label %23

21:                                               ; preds = %13
  store i32 0, ptr %7, align 4, !tbaa !166
  %22 = load i32, ptr %9, align 4, !tbaa !168
  store i32 %22, ptr %10, align 4, !tbaa !167
  br label %23

23:                                               ; preds = %21, %13
  %24 = phi i32 [ %22, %21 ], [ %14, %13 ]
  %25 = phi i32 [ 0, %21 ], [ %15, %13 ]
  %26 = getelementptr inbounds nuw i8, ptr %16, i64 16
  %27 = load i32, ptr %26, align 4, !tbaa !171
  %28 = add nsw i32 %27, %24
  %29 = icmp sgt i32 %28, %12
  br i1 %29, label %._crit_edge.loopexit.i, label %30

30:                                               ; preds = %23
  store i32 %25, ptr %16, align 4, !tbaa !172
  %31 = getelementptr inbounds nuw i8, ptr %16, i64 4
  store i32 %24, ptr %31, align 4, !tbaa !173
  %32 = getelementptr inbounds nuw i8, ptr %16, i64 20
  store i32 1, ptr %32, align 4, !tbaa !174
  %33 = add nsw i32 %25, %18
  store i32 %33, ptr %7, align 4, !tbaa !166
  %34 = load i32, ptr %9, align 4, !tbaa !168
  %35 = icmp sgt i32 %28, %34
  br i1 %35, label %36, label %37

36:                                               ; preds = %30
  store i32 %28, ptr %9, align 4, !tbaa !168
  br label %37

37:                                               ; preds = %36, %30
  %indvars.iv.next.i = add nuw nsw i64 %indvars.iv.i, 1
  %exitcond.not.i = icmp eq i64 %indvars.iv.next.i, %wide.trip.count.i
  br i1 %exitcond.not.i, label %stbrp_pack_rects.exit, label %13, !llvm.loop !175

._crit_edge.loopexit.i:                           ; preds = %23
  %38 = trunc nuw nsw i64 %indvars.iv.i to i32
  br label %._crit_edge.i

._crit_edge.i:                                    ; preds = %._crit_edge.loopexit.i, %3
  %.0.lcssa.i = phi i32 [ 0, %3 ], [ %38, %._crit_edge.loopexit.i ]
  %39 = icmp slt i32 %.0.lcssa.i, %2
  br i1 %39, label %.lr.ph44.preheader.i, label %stbrp_pack_rects.exit

.lr.ph44.preheader.i:                             ; preds = %._crit_edge.i
  %40 = zext i32 %.0.lcssa.i to i64
  %wide.trip.count = zext i32 %2 to i64
  br label %.lr.ph44.i

.lr.ph44.i:                                       ; preds = %.lr.ph44.i, %.lr.ph44.preheader.i
  %indvars.iv47.i = phi i64 [ %40, %.lr.ph44.preheader.i ], [ %indvars.iv.next48.i, %.lr.ph44.i ]
  %41 = getelementptr inbounds nuw %struct.stbrp_rect, ptr %1, i64 %indvars.iv47.i, i32 5
  store i32 0, ptr %41, align 4, !tbaa !174
  %indvars.iv.next48.i = add nuw nsw i64 %indvars.iv47.i, 1
  %exitcond.not = icmp eq i64 %indvars.iv.next48.i, %wide.trip.count
  br i1 %exitcond.not, label %stbrp_pack_rects.exit, label %.lr.ph44.i, !llvm.loop !176

stbrp_pack_rects.exit:                            ; preds = %37, %.lr.ph44.i, %._crit_edge.i
  ret void
}